target datalayout = "e-m:e-p270:32:32-p271:32:32-p272:64:64-i64:64-i128:128-f80:128-n8:16:32:64-S128"
target triple = "x86_64-pc-linux-gnu"

@bio_err = external global ptr, align 8
@mr = internal global i32 0, align 4
@lengths = internal global ptr @lengths_list, align 8
@results = internal global [31 x [6 x double]] zeroinitializer, align 16
@testmoderesult = internal global i32 0, align 4
@.str.475 = private unnamed_addr constant [11 x i8] c"%s error!\0A\00", align 1
@.str.476 = private unnamed_addr constant [13 x i8] c"+R:%d:%s:%f\0A\00", align 1
@.str.477 = private unnamed_addr constant [20 x i8] c"%d %s ops in %.2fs\0A\00", align 1

; Function Attrs: nounwind uwtable
define internal void @dofail() #0 {
  %1 = load ptr, ptr @bio_err, align 8, !tbaa !53
  call void @ERR_print_errors(ptr noundef %1)
  store i32 1, ptr @testmoderesult, align 4, !tbaa !4
  ret void
}

; Function Attrs: nounwind uwtable
define internal void @print_result(i32 noundef %0, i32 noundef %1, i32 noundef %2, double noundef %3) #0 {
  %5 = alloca i32, align 4
  %6 = alloca i32, align 4
  %7 = alloca i32, align 4
  %8 = alloca double, align 8
  store i32 %0, ptr %5, align 4, !tbaa !4
  store i32 %1, ptr %6, align 4, !tbaa !4
  store i32 %2, ptr %7, align 4, !tbaa !4
  store double %3, ptr %8, align 8, !tbaa !44
  %9 = load i32, ptr %7, align 4, !tbaa !4
  %10 = icmp eq i32 %9, -1
  br i1 %10, label %11, label %18

11:                                               ; preds = %4
  %12 = load ptr, ptr @bio_err, align 8, !tbaa !53
  %13 = load i32, ptr %5, align 4, !tbaa !4
  %14 = sext i32 %13 to i64
  %15 = getelementptr inbounds [31 x ptr], ptr @names, i64 0, i64 %14
  %16 = load ptr, ptr %15, align 8, !tbaa !39
  %17 = call i32 (ptr, ptr, ...) @BIO_printf(ptr noundef %12, ptr noundef @.str.475, ptr noundef %16)
  call void @dofail()
  br label %47

18:                                               ; preds = %4
  %19 = load ptr, ptr @bio_err, align 8, !tbaa !53
  %20 = load i32, ptr @mr, align 4, !tbaa !4
  %21 = icmp ne i32 %20, 0
  %22 = select i1 %21, ptr @.str.476, ptr @.str.477
  %23 = load i32, ptr %7, align 4, !tbaa !4
  %24 = load i32, ptr %5, align 4, !tbaa !4
  %25 = sext i32 %24 to i64
  %26 = getelementptr inbounds [31 x ptr], ptr @names, i64 0, i64 %25
  %27 = load ptr, ptr %26, align 8, !tbaa !39
  %28 = load double, ptr %8, align 8, !tbaa !44
  %29 = call i32 (ptr, ptr, ...) @BIO_printf(ptr noundef %19, ptr noundef %22, i32 noundef %23, ptr noundef %27, double noundef %28)
  %30 = load i32, ptr %7, align 4, !tbaa !4
  %31 = sitofp i32 %30 to double
  %32 = load double, ptr %8, align 8, !tbaa !44
  %33 = fdiv double %31, %32
  %34 = load ptr, ptr @lengths, align 8, !tbaa !66
  %35 = load i32, ptr %6, align 4, !tbaa !4
  %36 = sext i32 %35 to i64
  %37 = getelementptr inbounds i32, ptr %34, i64 %36
  %38 = load i32, ptr %37, align 4, !tbaa !4
  %39 = sitofp i32 %38 to double
  %40 = fmul double %33, %39
  %41 = load i32, ptr %5, align 4, !tbaa !4
  %42 = sext i32 %41 to i64
  %43 = getelementptr inbounds [31 x [6 x double]], ptr @results, i64 0, i64 %42
  %44 = load i32, ptr %6, align 4, !tbaa !4
  %45 = sext i32 %44 to i64
  %46 = getelementptr inbounds [6 x double], ptr %43, i64 0, i64 %45
  store double %40, ptr %46, align 8, !tbaa !44
  br label %47

47:                                               ; preds = %18, %11
  ret void
}