; Function Attrs: nounwind uwtable
define internal fastcc void @print_result(i32 noundef %0, i32 noundef %1, i32 noundef %2, double noundef %3) unnamed_addr #0 {
  %5 = icmp eq i32 %2, -1
  %6 = load ptr, ptr @bio_err, align 8, !tbaa !19
  br i1 %5, label %7, label %13

7:                                                ; preds = %4
  %8 = sext i32 %0 to i64
  %9 = getelementptr inbounds [31 x ptr], ptr @names, i64 0, i64 %8
  %10 = load ptr, ptr %9, align 8, !tbaa !23
  %11 = tail call i32 (ptr, ptr, ...) @BIO_printf(ptr noundef %6, ptr noundef nonnull @.str.475, ptr noundef %10) #14
  %12 = load ptr, ptr @bio_err, align 8, !tbaa !19
  tail call void @ERR_print_errors(ptr noundef %12) #14
  store i1 true, ptr @testmoderesult, align 4
  br label %28

13:                                               ; preds = %4
  %.b = load i1, ptr @mr, align 4
  %14 = select i1 %.b, ptr @.str.476, ptr @.str.477
  %15 = sext i32 %0 to i64
  %16 = getelementptr inbounds [31 x ptr], ptr @names, i64 0, i64 %15
  %17 = load ptr, ptr %16, align 8, !tbaa !23
  %18 = tail call i32 (ptr, ptr, ...) @BIO_printf(ptr noundef %6, ptr noundef nonnull %14, i32 noundef %2, ptr noundef %17, double noundef %3) #14
  %19 = sitofp i32 %2 to double
  %20 = fdiv double %19, %3
  %21 = load ptr, ptr @lengths, align 8, !tbaa !26
  %22 = sext i32 %1 to i64
  %23 = getelementptr inbounds i32, ptr %21, i64 %22
  %24 = load i32, ptr %23, align 4, !tbaa !13
  %25 = sitofp i32 %24 to double
  %26 = fmul double %20, %25
  %27 = getelementptr inbounds [31 x [6 x double]], ptr @results, i64 0, i64 %15, i64 %22
  store double %26, ptr %27, align 8, !tbaa !115
  br label %28

28:                                               ; preds = %13, %7
  ret void
}